target datalayout = "e-m:e-p270:32:32-p271:32:32-p272:64:64-i64:64-i128:128-f80:128-n8:16:32:64-S128"
target triple = "x86_64-pc-linux-gnu"

%class.QString = type { %struct.QArrayDataPointer.21 }
%struct.QArrayDataPointer.21 = type { ptr, ptr, i64 }
%class.QModelIndex = type { i32, i32, i64, ptr }
%class.QObject = type { ptr, %class.QScopedPointer }
%class.QScopedPointer = type { ptr }
%class.QPaintDevice.base = type <{ ptr, i16 }>
%class.QList.9 = type { %struct.QArrayDataPointer.12 }
%struct.QArrayDataPointer.12 = type { ptr, ptr, i64 }
%class.PacketList = type { %class.QTreeView, ptr, ptr, ptr, ptr, %class.QMenu, %class.QMenu, %class.QMenu, i32, %class.QByteArray, ptr, i32, i8, i8, %class.QList, i8, %class.QModelIndex, %class.RelatedPacketDelegate, ptr, %class.QList.1, i8, i8, i8, i8, i8, %class.QModelIndex, %class.QList.5, %class.QList.9, i32, i8, ptr }
%class.QTreeView = type { %class.QAbstractItemView }
%class.QAbstractItemView = type { %class.QAbstractScrollArea }
%class.QAbstractScrollArea = type { %class.QFrame }
%class.QFrame = type { %class.QWidget }
%class.QWidget = type { %class.QObject, %class.QPaintDevice.base, ptr }
%class.QMenu = type { %class.QWidget }
%class.QByteArray = type { %struct.QArrayDataPointer }
%struct.QArrayDataPointer = type { ptr, ptr, i64 }
%class.QList = type { %struct.QArrayDataPointer.0 }
%struct.QArrayDataPointer.0 = type { ptr, ptr, i64 }
%class.RelatedPacketDelegate = type <{ %class.QStyledItemDelegate, %class.QHash, ptr, i32, [4 x i8] }>
%class.QStyledItemDelegate = type { %class.QAbstractItemDelegate }
%class.QAbstractItemDelegate = type { %class.QObject }
%class.QHash = type { ptr }
%class.QList.1 = type { %struct.QArrayDataPointer.4 }
%struct.QArrayDataPointer.4 = type { ptr, ptr, i64 }
%class.QList.5 = type { %struct.QArrayDataPointer.8 }
%struct.QArrayDataPointer.8 = type { ptr, ptr, i64 }
%class.QFontMetrics = type { %class.QExplicitlySharedDataPointer }
%class.QExplicitlySharedDataPointer = type { ptr }
%class.QFont = type <{ %class.QExplicitlySharedDataPointer, i32, [4 x i8] }>
%class.QStyleOptionViewItem = type { %class.QStyleOption, %class.QFlags.35, %class.QFlags.35, i32, i32, %class.QSize, %class.QFont, i8, %class.QFlags.36, %class.QLocale, ptr, %class.QModelIndex, i32, %class.QIcon, %class.QString, i32, %class.QBrush }
%class.QStyleOption = type { i32, i32, %class.QFlags.34, i32, %class.QRect, %class.QFontMetrics, %class.QPalette, ptr }
%class.QFlags.34 = type { i32 }
%class.QRect = type { i32, i32, i32, i32 }
%class.QPalette = type <{ ptr, i32, [4 x i8] }>
%class.QFlags.35 = type { i32 }
%class.QSize = type { i32, i32 }
%class.QFlags.36 = type { i32 }
%class.QLocale = type { %class.QSharedDataPointer }
%class.QSharedDataPointer = type { ptr }
%class.QIcon = type { ptr }
%class.QBrush = type { %"class.std::unique_ptr" }
%"class.std::unique_ptr" = type { %"struct.std::__uniq_ptr_data" }
%"struct.std::__uniq_ptr_data" = type { %"class.std::__uniq_ptr_impl" }
%"class.std::__uniq_ptr_impl" = type { %"class.std::tuple" }
%"class.std::tuple" = type { %"struct.std::_Tuple_impl" }
%"struct.std::_Tuple_impl" = type { %"struct.std::_Head_base.38" }
%"struct.std::_Head_base.38" = type { ptr }

; Function Attrs: mustprogress nounwind uwtable
define linkonce_odr noundef nonnull align 4 dereferenceable(4) ptr @_Z4qMaxIiERKT_S2_S2_(ptr noundef nonnull align 4 dereferenceable(4) %0, ptr noundef nonnull align 4 dereferenceable(4) %1) #2 comdat {
  %3 = alloca ptr, align 8
  %4 = alloca ptr, align 8
  store ptr %0, ptr %3, align 8
  store ptr %1, ptr %4, align 8
  %5 = load ptr, ptr %3, align 8
  %6 = load i32, ptr %5, align 4
  %7 = load ptr, ptr %4, align 8
  %8 = load i32, ptr %7, align 4
  %9 = icmp slt i32 %6, %8
  br i1 %9, label %10, label %12

10:                                               ; preds = %2
  %11 = load ptr, ptr %4, align 8
  br label %14

12:                                               ; preds = %2
  %13 = load ptr, ptr %3, align 8
  br label %14

14:                                               ; preds = %12, %10
  %15 = phi ptr [ %11, %10 ], [ %13, %12 ]
  ret ptr %15
}

; Function Attrs: mustprogress nounwind uwtable
define linkonce_odr noundef i32 @_ZNK5QSize6heightEv(ptr noundef nonnull align 4 dereferenceable(8) %0) #2 comdat align 2 {
  %2 = alloca ptr, align 8
  store ptr %0, ptr %2, align 8
  %3 = load ptr, ptr %2, align 8
  %4 = getelementptr inbounds %class.QSize, ptr %3, i32 0, i32 1
  %5 = load i32, ptr %4, align 4
  ret i32 %5
}

; Function Attrs: mustprogress nounwind uwtable
define linkonce_odr noundef i32 @_ZNK11QModelIndex3rowEv(ptr noundef nonnull align 8 dereferenceable(24) %0) #2 comdat align 2 {
  %2 = alloca ptr, align 8
  store ptr %0, ptr %2, align 8
  %3 = load ptr, ptr %2, align 8
  %4 = getelementptr inbounds %class.QModelIndex, ptr %3, i32 0, i32 0
  %5 = load i32, ptr %4, align 8
  ret i32 %5
}

; Function Attrs: mustprogress nounwind uwtable
define linkonce_odr void @_ZN11QModelIndexC2Ev(ptr noundef nonnull align 8 dereferenceable(24) %0) unnamed_addr #2 comdat align 2 {
  %2 = alloca ptr, align 8
  store ptr %0, ptr %2, align 8
  %3 = load ptr, ptr %2, align 8
  %4 = getelementptr inbounds %class.QModelIndex, ptr %3, i32 0, i32 0
  store i32 -1, ptr %4, align 8
  %5 = getelementptr inbounds %class.QModelIndex, ptr %3, i32 0, i32 1
  store i32 -1, ptr %5, align 4
  %6 = getelementptr inbounds %class.QModelIndex, ptr %3, i32 0, i32 2
  store i64 0, ptr %6, align 8
  %7 = getelementptr inbounds %class.QModelIndex, ptr %3, i32 0, i32 3
  store ptr null, ptr %7, align 8
  ret void
}

; Function Attrs: mustprogress uwtable
define void @_ZN10PacketList16updateRowHeightsERK11QModelIndex(ptr noundef nonnull align 8 dereferenceable(464) %0, ptr noundef nonnull align 8 dereferenceable(24) %1) #0 align 2 personality ptr @__gxx_personality_v0 {
  %3 = alloca ptr, align 8
  %4 = alloca ptr, align 8
  %5 = alloca %class.QStyleOptionViewItem, align 8
  %6 = alloca ptr, align 8
  %7 = alloca i32, align 4
  %8 = alloca i32, align 4
  %9 = alloca i32, align 4
  %10 = alloca %class.QModelIndex, align 8
  %11 = alloca %class.QSize, align 4
  %12 = alloca %class.QModelIndex, align 8
  %13 = alloca %class.QModelIndex, align 8
  %14 = alloca i32, align 4
  store ptr %0, ptr %3, align 8
  store ptr %1, ptr %4, align 8
  %15 = load ptr, ptr %3, align 8
  call void @_ZN20QStyleOptionViewItemC1Ev(ptr noundef nonnull align 8 dereferenceable(208) %5)
  %16 = load ptr, ptr %15, align 8
  %17 = getelementptr inbounds ptr, ptr %16, i64 95
  %18 = load ptr, ptr %17, align 8
  invoke void %18(ptr noundef nonnull align 8 dereferenceable(40) %15, ptr noundef %5)
          to label %19 unwind label %54

19:                                               ; preds = %2
  store i32 0, ptr %8, align 4
  store i32 0, ptr %9, align 4
  br label %20

20:                                               ; preds = %51, %19
  %21 = load i32, ptr %9, align 4
  %22 = getelementptr inbounds %class.PacketList, ptr %15, i32 0, i32 1
  %23 = load ptr, ptr %22, align 8
  call void @_ZN11QModelIndexC2Ev(ptr noundef nonnull align 8 dereferenceable(24) %10) #16
  %24 = load ptr, ptr %23, align 8
  %25 = getelementptr inbounds ptr, ptr %24, i64 16
  %26 = load ptr, ptr %25, align 8
  %27 = invoke noundef i32 %26(ptr noundef nonnull align 8 dereferenceable(164) %23, ptr noundef nonnull align 8 dereferenceable(24) %10)
          to label %28 unwind label %54

28:                                               ; preds = %20
  %29 = icmp slt i32 %21, %27
  br i1 %29, label %30, label %58

30:                                               ; preds = %28
  %31 = invoke noundef ptr @_ZNK17QAbstractItemView12itemDelegateEv(ptr noundef nonnull align 8 dereferenceable(40) %15)
          to label %32 unwind label %54

32:                                               ; preds = %30
  %33 = getelementptr inbounds %class.PacketList, ptr %15, i32 0, i32 1
  %34 = load ptr, ptr %33, align 8
  %35 = load ptr, ptr %4, align 8
  %36 = call noundef i32 @_ZNK11QModelIndex3rowEv(ptr noundef nonnull align 8 dereferenceable(24) %35) #16
  %37 = load i32, ptr %9, align 4
  call void @_ZN11QModelIndexC2Ev(ptr noundef nonnull align 8 dereferenceable(24) %13) #16
  %38 = load ptr, ptr %34, align 8
  %39 = getelementptr inbounds ptr, ptr %38, i64 12
  %40 = load ptr, ptr %39, align 8
  invoke void %40(ptr dead_on_unwind writable sret(%class.QModelIndex) align 8 %12, ptr noundef nonnull align 8 dereferenceable(164) %34, i32 noundef %36, i32 noundef %37, ptr noundef nonnull align 8 dereferenceable(24) %13)
          to label %41 unwind label %54

41:                                               ; preds = %32
  %42 = load ptr, ptr %31, align 8
  %43 = getelementptr inbounds ptr, ptr %42, i64 13
  %44 = load ptr, ptr %43, align 8
  %45 = invoke i64 %44(ptr noundef nonnull align 8 dereferenceable(16) %31, ptr noundef nonnull align 8 dereferenceable(208) %5, ptr noundef nonnull align 8 dereferenceable(24) %12)
          to label %46 unwind label %54

46:                                               ; preds = %41
  store i64 %45, ptr %11, align 4
  %47 = call noundef i32 @_ZNK5QSize6heightEv(ptr noundef nonnull align 4 dereferenceable(8) %11) #16
  store i32 %47, ptr %14, align 4
  %48 = invoke noundef nonnull align 4 dereferenceable(4) ptr @_Z4qMaxIiERKT_S2_S2_(ptr noundef nonnull align 4 dereferenceable(4) %8, ptr noundef nonnull align 4 dereferenceable(4) %14)
          to label %49 unwind label %54

49:                                               ; preds = %46
  %50 = load i32, ptr %48, align 4
  store i32 %50, ptr %8, align 4
  br label %51

51:                                               ; preds = %49
  %52 = load i32, ptr %9, align 4
  %53 = add i32 %52, 1
  store i32 %53, ptr %9, align 4
  br label %20, !llvm.loop !47

54:                                               ; preds = %61, %46, %41, %32, %30, %20, %2
  %55 = landingpad { ptr, i32 }
          cleanup
  %56 = extractvalue { ptr, i32 } %55, 0
  store ptr %56, ptr %6, align 8
  %57 = extractvalue { ptr, i32 } %55, 1
  store i32 %57, ptr %7, align 4
  call void @_ZN20QStyleOptionViewItemD2Ev(ptr noundef nonnull align 8 dereferenceable(208) %5) #16
  br label %67

58:                                               ; preds = %28
  %59 = load i32, ptr %8, align 4
  %60 = icmp sgt i32 %59, 0
  br i1 %60, label %61, label %66

61:                                               ; preds = %58
  %62 = getelementptr inbounds %class.PacketList, ptr %15, i32 0, i32 1
  %63 = load ptr, ptr %62, align 8
  %64 = load i32, ptr %8, align 4
  invoke void @_ZN15PacketListModel19setMaximumRowHeightEi(ptr noundef nonnull align 8 dereferenceable(164) %63, i32 noundef %64)
          to label %65 unwind label %54

65:                                               ; preds = %61
  br label %66

66:                                               ; preds = %65, %58
  call void @_ZN20QStyleOptionViewItemD2Ev(ptr noundef nonnull align 8 dereferenceable(208) %5) #16
  ret void

67:                                               ; preds = %54
  %68 = load ptr, ptr %6, align 8
  %69 = load i32, ptr %7, align 4
  %70 = insertvalue { ptr, i32 } poison, ptr %68, 0
  %71 = insertvalue { ptr, i32 } %70, i32 %69, 1
  resume { ptr, i32 } %71
}