; Function Attrs: mustprogress uwtable
define void @_ZN10PacketList16updateRowHeightsERK11QModelIndex(ptr noundef nonnull align 8 dereferenceable(464) %0, ptr nocapture noundef nonnull readonly align 8 dereferenceable(24) %1) local_unnamed_addr #0 align 2 personality ptr @__gxx_personality_v0 {
  %3 = alloca %class.QStyleOptionViewItem, align 8
  %4 = alloca %class.QModelIndex, align 8
  %5 = alloca %class.QModelIndex, align 8
  %6 = alloca %class.QModelIndex, align 8
  call void @_ZN20QStyleOptionViewItemC1Ev(ptr noundef nonnull align 8 dereferenceable(208) %3)
  %7 = load ptr, ptr %0, align 8
  %8 = getelementptr inbounds i8, ptr %7, i64 760
  %9 = load ptr, ptr %8, align 8
  invoke void %9(ptr noundef nonnull align 8 dereferenceable(40) %0, ptr noundef nonnull %3)
          to label %.preheader unwind label %.loopexit.split-lp

.preheader:                                       ; preds = %2
  %10 = getelementptr inbounds i8, ptr %0, i64 40
  %11 = getelementptr inbounds i8, ptr %4, i64 4
  %12 = getelementptr inbounds i8, ptr %4, i64 8
  %13 = getelementptr inbounds i8, ptr %6, i64 4
  %14 = getelementptr inbounds i8, ptr %6, i64 8
  br label %15

15:                                               ; preds = %.preheader, %36
  %.011 = phi i32 [ %.sroa.speculated, %36 ], [ 0, %.preheader ]
  %.0 = phi i32 [ %37, %36 ], [ 0, %.preheader ]
  %16 = load ptr, ptr %10, align 8
  store i32 -1, ptr %4, align 8
  store i32 -1, ptr %11, align 4
  call void @llvm.memset.p0.i64(ptr noundef nonnull align 8 dereferenceable(16) %12, i8 0, i64 16, i1 false)
  %17 = load ptr, ptr %16, align 8
  %18 = getelementptr inbounds i8, ptr %17, i64 128
  %19 = load ptr, ptr %18, align 8
  %20 = invoke noundef i32 %19(ptr noundef nonnull align 8 dereferenceable(164) %16, ptr noundef nonnull align 8 dereferenceable(24) %4)
          to label %21 unwind label %.loopexit

21:                                               ; preds = %15
  %22 = icmp slt i32 %.0, %20
  br i1 %22, label %23, label %39

23:                                               ; preds = %21
  %24 = invoke noundef ptr @_ZNK17QAbstractItemView12itemDelegateEv(ptr noundef nonnull align 8 dereferenceable(40) %0)
          to label %25 unwind label %.loopexit

25:                                               ; preds = %23
  %26 = load ptr, ptr %10, align 8
  %27 = load i32, ptr %1, align 8
  store i32 -1, ptr %6, align 8
  store i32 -1, ptr %13, align 4
  call void @llvm.memset.p0.i64(ptr noundef nonnull align 8 dereferenceable(16) %14, i8 0, i64 16, i1 false)
  %28 = load ptr, ptr %26, align 8
  %29 = getelementptr inbounds i8, ptr %28, i64 96
  %30 = load ptr, ptr %29, align 8
  invoke void %30(ptr dead_on_unwind nonnull writable sret(%class.QModelIndex) align 8 %5, ptr noundef nonnull align 8 dereferenceable(164) %26, i32 noundef %27, i32 noundef %.0, ptr noundef nonnull align 8 dereferenceable(24) %6)
          to label %31 unwind label %.loopexit

31:                                               ; preds = %25
  %32 = load ptr, ptr %24, align 8
  %33 = getelementptr inbounds i8, ptr %32, i64 104
  %34 = load ptr, ptr %33, align 8
  %35 = invoke i64 %34(ptr noundef nonnull align 8 dereferenceable(16) %24, ptr noundef nonnull align 8 dereferenceable(208) %3, ptr noundef nonnull align 8 dereferenceable(24) %5)
          to label %36 unwind label %.loopexit

36:                                               ; preds = %31
  %.sroa.1.0.extract.shift = lshr i64 %35, 32
  %.sroa.1.0.extract.trunc = trunc i64 %.sroa.1.0.extract.shift to i32
  %.sroa.speculated = call i32 @llvm.smax.i32(i32 %.011, i32 %.sroa.1.0.extract.trunc)
  %37 = add nuw nsw i32 %.0, 1
  br label %15, !llvm.loop !191

.loopexit:                                        ; preds = %15, %23, %25, %31
  %lpad.loopexit = landingpad { ptr, i32 }
          cleanup
  br label %38

.loopexit.split-lp:                               ; preds = %2, %41
  %lpad.loopexit.split-lp = landingpad { ptr, i32 }
          cleanup
  br label %38

38:                                               ; preds = %.loopexit.split-lp, %.loopexit
  %lpad.phi = phi { ptr, i32 } [ %lpad.loopexit, %.loopexit ], [ %lpad.loopexit.split-lp, %.loopexit.split-lp ]
  call void @_ZN20QStyleOptionViewItemD2Ev(ptr noundef nonnull align 8 dereferenceable(208) %3) #20
  resume { ptr, i32 } %lpad.phi

39:                                               ; preds = %21
  %40 = icmp sgt i32 %.011, 0
  br i1 %40, label %41, label %43

41:                                               ; preds = %39
  %42 = load ptr, ptr %10, align 8
  invoke void @_ZN15PacketListModel19setMaximumRowHeightEi(ptr noundef nonnull align 8 dereferenceable(164) %42, i32 noundef %.011)
          to label %43 unwind label %.loopexit.split-lp

43:                                               ; preds = %41, %39
  %44 = getelementptr inbounds i8, ptr %3, i64 200
  call void @_ZN6QBrushD1Ev(ptr noundef nonnull align 8 dereferenceable(8) %44) #20
  %45 = getelementptr inbounds i8, ptr %3, i64 168
  %46 = load ptr, ptr %45, align 8
  %.not.i.i.i.i = icmp eq ptr %46, null
  br i1 %.not.i.i.i.i, label %_ZN20QStyleOptionViewItemD2Ev.exit, label %_ZN17QArrayDataPointerIDsE5derefEv.exit.i.i.i

_ZN17QArrayDataPointerIDsE5derefEv.exit.i.i.i:    ; preds = %43
  %47 = atomicrmw sub ptr %46, i32 1 seq_cst, align 4
  %.not.i.i.i = icmp eq i32 %47, 1
  br i1 %.not.i.i.i, label %48, label %_ZN20QStyleOptionViewItemD2Ev.exit

48:                                               ; preds = %_ZN17QArrayDataPointerIDsE5derefEv.exit.i.i.i
  %49 = load ptr, ptr %45, align 8
  call void @_ZN10QArrayData10deallocateEPS_xx(ptr noundef %49, i64 noundef 2, i64 noundef 8) #20
  br label %_ZN20QStyleOptionViewItemD2Ev.exit

_ZN20QStyleOptionViewItemD2Ev.exit:               ; preds = %43, %_ZN17QArrayDataPointerIDsE5derefEv.exit.i.i.i, %48
  %50 = getelementptr inbounds i8, ptr %3, i64 160
  call void @_ZN5QIconD1Ev(ptr noundef nonnull align 8 dereferenceable(8) %50) #20
  %51 = getelementptr inbounds i8, ptr %3, i64 112
  call void @_ZN7QLocaleD1Ev(ptr noundef nonnull align 8 dereferenceable(8) %51) #20
  %52 = getelementptr inbounds i8, ptr %3, i64 88
  call void @_ZN5QFontD1Ev(ptr noundef nonnull align 8 dereferenceable(12) %52) #20
  call void @_ZN12QStyleOptionD2Ev(ptr noundef nonnull align 8 dereferenceable(64) %3) #20
  ret void
}